target datalayout = "e-m:e-p270:32:32-p271:32:32-p272:64:64-i64:64-i128:128-f80:128-n8:16:32:64-S128"
target triple = "x86_64-pc-linux-gnu"

%"struct.OpenColorIO_v2_5dev::GradingTonePreRender" = type { double, double, double, double, double, double, double, double, [4 x [6 x float]], [4 x [6 x float]], [4 x [6 x float]], [2 x [4 x [3 x float]]], [2 x [4 x [3 x float]]], [2 x [4 x [2 x float]]], [2 x [4 x [2 x float]]], [2 x [4 x [2 x float]]], [2 x [4 x [2 x float]]], [2 x [4 x float]], [2 x [4 x float]], [2 x [4 x float]], [2 x [2 x float]], float, float, float, float, i8, i32 }

@constinit = private constant [4 x [6 x float]] zeroinitializer, align 4
@constinit.21 = private constant [4 x [6 x float]] zeroinitializer, align 4
@constinit.22 = private constant [4 x [6 x float]] zeroinitializer, align 4
@constinit.23 = private constant [2 x [4 x [3 x float]]] zeroinitializer, align 4
@constinit.24 = private constant [2 x [4 x [3 x float]]] zeroinitializer, align 4
@constinit.25 = private constant [2 x [4 x [2 x float]]] zeroinitializer, align 4
@constinit.26 = private constant [2 x [4 x [2 x float]]] zeroinitializer, align 4
@constinit.27 = private constant [2 x [4 x [2 x float]]] zeroinitializer, align 4
@constinit.28 = private constant [2 x [4 x [2 x float]]] zeroinitializer, align 4

; Function Attrs: mustprogress nounwind uwtable
define hidden void @_ZN19OpenColorIO_v2_5dev20GradingTonePreRender9FromStyleENS_12GradingStyleERfS2_S2_S2_(i32 noundef %0, ptr noundef nonnull align 4 dereferenceable(4) %1, ptr noundef nonnull align 4 dereferenceable(4) %2, ptr noundef nonnull align 4 dereferenceable(4) %3, ptr noundef nonnull align 4 dereferenceable(4) %4) #4 align 2 {
  %6 = alloca i32, align 4
  %7 = alloca ptr, align 8
  %8 = alloca ptr, align 8
  %9 = alloca ptr, align 8
  %10 = alloca ptr, align 8
  store i32 %0, ptr %6, align 4, !tbaa !35
  store ptr %1, ptr %7, align 8, !tbaa !58
  store ptr %2, ptr %8, align 8, !tbaa !58
  store ptr %3, ptr %9, align 8, !tbaa !58
  store ptr %4, ptr %10, align 8, !tbaa !58
  %11 = load i32, ptr %6, align 4, !tbaa !35
  switch i32 %11, label %27 [
    i32 0, label %12
    i32 1, label %17
    i32 2, label %22
  ]

12:                                               ; preds = %5
  %13 = load ptr, ptr %7, align 8, !tbaa !58
  store float 1.000000e+00, ptr %13, align 4, !tbaa !51
  %14 = load ptr, ptr %8, align 8, !tbaa !58
  store float 1.000000e+00, ptr %14, align 4, !tbaa !51
  %15 = load ptr, ptr %9, align 8, !tbaa !58
  store float 0.000000e+00, ptr %15, align 4, !tbaa !51
  %16 = load ptr, ptr %10, align 8, !tbaa !58
  store float 0x3FD99999A0000000, ptr %16, align 4, !tbaa !51
  br label %28

17:                                               ; preds = %5
  %18 = load ptr, ptr %7, align 8, !tbaa !58
  store float 7.500000e+00, ptr %18, align 4, !tbaa !51
  %19 = load ptr, ptr %8, align 8, !tbaa !58
  store float 6.500000e+00, ptr %19, align 4, !tbaa !51
  %20 = load ptr, ptr %9, align 8, !tbaa !58
  store float -5.500000e+00, ptr %20, align 4, !tbaa !51
  %21 = load ptr, ptr %10, align 8, !tbaa !58
  store float 0.000000e+00, ptr %21, align 4, !tbaa !51
  br label %28

22:                                               ; preds = %5
  %23 = load ptr, ptr %7, align 8, !tbaa !58
  store float 1.000000e+00, ptr %23, align 4, !tbaa !51
  %24 = load ptr, ptr %8, align 8, !tbaa !58
  store float 1.000000e+00, ptr %24, align 4, !tbaa !51
  %25 = load ptr, ptr %9, align 8, !tbaa !58
  store float 0.000000e+00, ptr %25, align 4, !tbaa !51
  %26 = load ptr, ptr %10, align 8, !tbaa !58
  store float 0x3FD99999A0000000, ptr %26, align 4, !tbaa !51
  br label %28

27:                                               ; preds = %5
  br label %28

28:                                               ; preds = %27, %22, %17, %12
  ret void
}

; Function Attrs: mustprogress nounwind uwtable
define hidden void @_ZN19OpenColorIO_v2_5dev20GradingTonePreRender8setStyleENS_12GradingStyleE(ptr noundef nonnull align 8 dereferenceable(936) %0, i32 noundef %1) #4 align 2 {
  %3 = alloca ptr, align 8
  %4 = alloca i32, align 4
  store ptr %0, ptr %3, align 8, !tbaa !33
  store i32 %1, ptr %4, align 4, !tbaa !35
  %5 = load ptr, ptr %3, align 8
  %6 = getelementptr inbounds nuw %"struct.OpenColorIO_v2_5dev::GradingTonePreRender", ptr %5, i32 0, i32 26
  %7 = load i32, ptr %6, align 4, !tbaa !57
  %8 = load i32, ptr %4, align 4, !tbaa !35
  %9 = icmp ne i32 %7, %8
  br i1 %9, label %10, label %18

10:                                               ; preds = %2
  %11 = load i32, ptr %4, align 4, !tbaa !35
  %12 = getelementptr inbounds nuw %"struct.OpenColorIO_v2_5dev::GradingTonePreRender", ptr %5, i32 0, i32 26
  store i32 %11, ptr %12, align 4, !tbaa !57
  %13 = load i32, ptr %4, align 4, !tbaa !35
  %14 = getelementptr inbounds nuw %"struct.OpenColorIO_v2_5dev::GradingTonePreRender", ptr %5, i32 0, i32 21
  %15 = getelementptr inbounds nuw %"struct.OpenColorIO_v2_5dev::GradingTonePreRender", ptr %5, i32 0, i32 22
  %16 = getelementptr inbounds nuw %"struct.OpenColorIO_v2_5dev::GradingTonePreRender", ptr %5, i32 0, i32 23
  %17 = getelementptr inbounds nuw %"struct.OpenColorIO_v2_5dev::GradingTonePreRender", ptr %5, i32 0, i32 24
  call void @_ZN19OpenColorIO_v2_5dev20GradingTonePreRender9FromStyleENS_12GradingStyleERfS2_S2_S2_(i32 noundef %13, ptr noundef nonnull align 4 dereferenceable(4) %14, ptr noundef nonnull align 4 dereferenceable(4) %15, ptr noundef nonnull align 4 dereferenceable(4) %16, ptr noundef nonnull align 4 dereferenceable(4) %17)
  br label %18

18:                                               ; preds = %10, %2
  ret void
}

; Function Attrs: mustprogress uwtable
define hidden void @_ZN19OpenColorIO_v2_5dev20GradingTonePreRenderC2ENS_12GradingStyleE(ptr noundef nonnull align 8 dereferenceable(936) %0, i32 noundef %1) unnamed_addr #5 align 2 {
  %3 = alloca ptr, align 8
  %4 = alloca i32, align 4
  store ptr %0, ptr %3, align 8, !tbaa !33
  store i32 %1, ptr %4, align 4, !tbaa !35
  %5 = load ptr, ptr %3, align 8
  %6 = getelementptr inbounds nuw %"struct.OpenColorIO_v2_5dev::GradingTonePreRender", ptr %5, i32 0, i32 0
  store double 0.000000e+00, ptr %6, align 8, !tbaa !37
  %7 = getelementptr inbounds nuw %"struct.OpenColorIO_v2_5dev::GradingTonePreRender", ptr %5, i32 0, i32 1
  store double 0.000000e+00, ptr %7, align 8, !tbaa !41
  %8 = getelementptr inbounds nuw %"struct.OpenColorIO_v2_5dev::GradingTonePreRender", ptr %5, i32 0, i32 2
  store double 0.000000e+00, ptr %8, align 8, !tbaa !42
  %9 = getelementptr inbounds nuw %"struct.OpenColorIO_v2_5dev::GradingTonePreRender", ptr %5, i32 0, i32 3
  store double 0.000000e+00, ptr %9, align 8, !tbaa !43
  %10 = getelementptr inbounds nuw %"struct.OpenColorIO_v2_5dev::GradingTonePreRender", ptr %5, i32 0, i32 4
  store double 0.000000e+00, ptr %10, align 8, !tbaa !44
  %11 = getelementptr inbounds nuw %"struct.OpenColorIO_v2_5dev::GradingTonePreRender", ptr %5, i32 0, i32 5
  store double 0.000000e+00, ptr %11, align 8, !tbaa !45
  %12 = getelementptr inbounds nuw %"struct.OpenColorIO_v2_5dev::GradingTonePreRender", ptr %5, i32 0, i32 6
  store double 0.000000e+00, ptr %12, align 8, !tbaa !46
  %13 = getelementptr inbounds nuw %"struct.OpenColorIO_v2_5dev::GradingTonePreRender", ptr %5, i32 0, i32 7
  store double 0.000000e+00, ptr %13, align 8, !tbaa !47
  %14 = getelementptr inbounds nuw %"struct.OpenColorIO_v2_5dev::GradingTonePreRender", ptr %5, i32 0, i32 8
  call void @llvm.memcpy.p0.p0.i64(ptr align 8 %14, ptr align 4 @constinit, i64 96, i1 false), !tbaa.struct !48
  %15 = getelementptr inbounds nuw %"struct.OpenColorIO_v2_5dev::GradingTonePreRender", ptr %5, i32 0, i32 9
  call void @llvm.memcpy.p0.p0.i64(ptr align 8 %15, ptr align 4 @constinit.21, i64 96, i1 false), !tbaa.struct !48
  %16 = getelementptr inbounds nuw %"struct.OpenColorIO_v2_5dev::GradingTonePreRender", ptr %5, i32 0, i32 10
  call void @llvm.memcpy.p0.p0.i64(ptr align 8 %16, ptr align 4 @constinit.22, i64 96, i1 false), !tbaa.struct !48
  %17 = getelementptr inbounds nuw %"struct.OpenColorIO_v2_5dev::GradingTonePreRender", ptr %5, i32 0, i32 11
  call void @llvm.memcpy.p0.p0.i64(ptr align 8 %17, ptr align 4 @constinit.23, i64 96, i1 false), !tbaa.struct !48
  %18 = getelementptr inbounds nuw %"struct.OpenColorIO_v2_5dev::GradingTonePreRender", ptr %5, i32 0, i32 12
  call void @llvm.memcpy.p0.p0.i64(ptr align 8 %18, ptr align 4 @constinit.24, i64 96, i1 false), !tbaa.struct !48
  %19 = getelementptr inbounds nuw %"struct.OpenColorIO_v2_5dev::GradingTonePreRender", ptr %5, i32 0, i32 13
  call void @llvm.memcpy.p0.p0.i64(ptr align 8 %19, ptr align 4 @constinit.25, i64 64, i1 false), !tbaa.struct !50
  %20 = getelementptr inbounds nuw %"struct.OpenColorIO_v2_5dev::GradingTonePreRender", ptr %5, i32 0, i32 14
  call void @llvm.memcpy.p0.p0.i64(ptr align 8 %20, ptr align 4 @constinit.26, i64 64, i1 false), !tbaa.struct !50
  %21 = getelementptr inbounds nuw %"struct.OpenColorIO_v2_5dev::GradingTonePreRender", ptr %5, i32 0, i32 15
  call void @llvm.memcpy.p0.p0.i64(ptr align 8 %21, ptr align 4 @constinit.27, i64 64, i1 false), !tbaa.struct !50
  %22 = getelementptr inbounds nuw %"struct.OpenColorIO_v2_5dev::GradingTonePreRender", ptr %5, i32 0, i32 16
  call void @llvm.memcpy.p0.p0.i64(ptr align 8 %22, ptr align 4 @constinit.28, i64 64, i1 false), !tbaa.struct !50
  %23 = getelementptr inbounds nuw %"struct.OpenColorIO_v2_5dev::GradingTonePreRender", ptr %5, i32 0, i32 17
  store float 0.000000e+00, ptr %23, align 4, !tbaa !51
  %24 = getelementptr inbounds float, ptr %23, i64 1
  %25 = getelementptr inbounds float, ptr %23, i64 4
  br label %26

26:                                               ; preds = %26, %2
  %27 = phi ptr [ %24, %2 ], [ %28, %26 ]
  store float 0.000000e+00, ptr %27, align 4, !tbaa !51
  %28 = getelementptr inbounds float, ptr %27, i64 1
  %29 = icmp eq ptr %28, %25
  br i1 %29, label %30, label %26

30:                                               ; preds = %26
  %31 = getelementptr inbounds [4 x float], ptr %23, i64 1
  %32 = getelementptr inbounds [4 x float], ptr %23, i64 2
  br label %33

33:                                               ; preds = %33, %30
  %34 = phi ptr [ %31, %30 ], [ %35, %33 ]
  call void @llvm.memset.p0.i64(ptr align 8 %34, i8 0, i64 16, i1 false)
  %35 = getelementptr inbounds [4 x float], ptr %34, i64 1
  %36 = icmp eq ptr %35, %32
  br i1 %36, label %37, label %33

37:                                               ; preds = %33
  %38 = getelementptr inbounds nuw %"struct.OpenColorIO_v2_5dev::GradingTonePreRender", ptr %5, i32 0, i32 18
  store float 0.000000e+00, ptr %38, align 4, !tbaa !51
  %39 = getelementptr inbounds float, ptr %38, i64 1
  %40 = getelementptr inbounds float, ptr %38, i64 4
  br label %41

41:                                               ; preds = %41, %37
  %42 = phi ptr [ %39, %37 ], [ %43, %41 ]
  store float 0.000000e+00, ptr %42, align 4, !tbaa !51
  %43 = getelementptr inbounds float, ptr %42, i64 1
  %44 = icmp eq ptr %43, %40
  br i1 %44, label %45, label %41

45:                                               ; preds = %41
  %46 = getelementptr inbounds [4 x float], ptr %38, i64 1
  %47 = getelementptr inbounds [4 x float], ptr %38, i64 2
  br label %48

48:                                               ; preds = %48, %45
  %49 = phi ptr [ %46, %45 ], [ %50, %48 ]
  call void @llvm.memset.p0.i64(ptr align 8 %49, i8 0, i64 16, i1 false)
  %50 = getelementptr inbounds [4 x float], ptr %49, i64 1
  %51 = icmp eq ptr %50, %47
  br i1 %51, label %52, label %48

52:                                               ; preds = %48
  %53 = getelementptr inbounds nuw %"struct.OpenColorIO_v2_5dev::GradingTonePreRender", ptr %5, i32 0, i32 19
  store float 0.000000e+00, ptr %53, align 4, !tbaa !51
  %54 = getelementptr inbounds float, ptr %53, i64 1
  %55 = getelementptr inbounds float, ptr %53, i64 4
  br label %56

56:                                               ; preds = %56, %52
  %57 = phi ptr [ %54, %52 ], [ %58, %56 ]
  store float 0.000000e+00, ptr %57, align 4, !tbaa !51
  %58 = getelementptr inbounds float, ptr %57, i64 1
  %59 = icmp eq ptr %58, %55
  br i1 %59, label %60, label %56

60:                                               ; preds = %56
  %61 = getelementptr inbounds [4 x float], ptr %53, i64 1
  %62 = getelementptr inbounds [4 x float], ptr %53, i64 2
  br label %63

63:                                               ; preds = %63, %60
  %64 = phi ptr [ %61, %60 ], [ %65, %63 ]
  call void @llvm.memset.p0.i64(ptr align 8 %64, i8 0, i64 16, i1 false)
  %65 = getelementptr inbounds [4 x float], ptr %64, i64 1
  %66 = icmp eq ptr %65, %62
  br i1 %66, label %67, label %63

67:                                               ; preds = %63
  %68 = getelementptr inbounds nuw %"struct.OpenColorIO_v2_5dev::GradingTonePreRender", ptr %5, i32 0, i32 20
  store float 0.000000e+00, ptr %68, align 4, !tbaa !51
  %69 = getelementptr inbounds float, ptr %68, i64 1
  %70 = getelementptr inbounds float, ptr %68, i64 2
  br label %71

71:                                               ; preds = %71, %67
  %72 = phi ptr [ %69, %67 ], [ %73, %71 ]
  store float 0.000000e+00, ptr %72, align 4, !tbaa !51
  %73 = getelementptr inbounds float, ptr %72, i64 1
  %74 = icmp eq ptr %73, %70
  br i1 %74, label %75, label %71

75:                                               ; preds = %71
  %76 = getelementptr inbounds [2 x float], ptr %68, i64 1
  %77 = getelementptr inbounds [2 x float], ptr %68, i64 2
  br label %78

78:                                               ; preds = %78, %75
  %79 = phi ptr [ %76, %75 ], [ %80, %78 ]
  call void @llvm.memset.p0.i64(ptr align 8 %79, i8 0, i64 8, i1 false)
  %80 = getelementptr inbounds [2 x float], ptr %79, i64 1
  %81 = icmp eq ptr %80, %77
  br i1 %81, label %82, label %78

82:                                               ; preds = %78
  %83 = getelementptr inbounds nuw %"struct.OpenColorIO_v2_5dev::GradingTonePreRender", ptr %5, i32 0, i32 21
  store float 1.000000e+00, ptr %83, align 8, !tbaa !52
  %84 = getelementptr inbounds nuw %"struct.OpenColorIO_v2_5dev::GradingTonePreRender", ptr %5, i32 0, i32 22
  store float 1.000000e+00, ptr %84, align 4, !tbaa !53
  %85 = getelementptr inbounds nuw %"struct.OpenColorIO_v2_5dev::GradingTonePreRender", ptr %5, i32 0, i32 23
  store float 0.000000e+00, ptr %85, align 8, !tbaa !54
  %86 = getelementptr inbounds nuw %"struct.OpenColorIO_v2_5dev::GradingTonePreRender", ptr %5, i32 0, i32 24
  store float 0x3FD99999A0000000, ptr %86, align 4, !tbaa !55
  %87 = getelementptr inbounds nuw %"struct.OpenColorIO_v2_5dev::GradingTonePreRender", ptr %5, i32 0, i32 25
  store i8 0, ptr %87, align 8, !tbaa !56
  %88 = getelementptr inbounds nuw %"struct.OpenColorIO_v2_5dev::GradingTonePreRender", ptr %5, i32 0, i32 26
  store i32 0, ptr %88, align 4, !tbaa !57
  %89 = load i32, ptr %4, align 4, !tbaa !35
  call void @_ZN19OpenColorIO_v2_5dev20GradingTonePreRender8setStyleENS_12GradingStyleE(ptr noundef nonnull align 8 dereferenceable(936) %5, i32 noundef %89)
  ret void
}