; Function Attrs: mustprogress nofree norecurse nosync nounwind willreturn memory(argmem: write) uwtable
define hidden void @_ZN19OpenColorIO_v2_5dev20GradingTonePreRenderC2ENS_12GradingStyleE(ptr noundef nonnull writeonly align 8 captures(none) dereferenceable(936) initializes((0, 929), (932, 936)) %0, i32 noundef %1) unnamed_addr #8 align 2 {
.preheader43.preheader:
  %2 = getelementptr inbounds nuw i8, ptr %0, i64 912
  tail call void @llvm.memset.p0.i64(ptr noundef nonnull align 8 dereferenceable(912) %0, i8 0, i64 912, i1 false)
  store float 1.000000e+00, ptr %2, align 8, !tbaa !23
  %3 = getelementptr inbounds nuw i8, ptr %0, i64 916
  store float 1.000000e+00, ptr %3, align 4, !tbaa !28
  %4 = getelementptr inbounds nuw i8, ptr %0, i64 920
  store float 0.000000e+00, ptr %4, align 8, !tbaa !29
  %5 = getelementptr inbounds nuw i8, ptr %0, i64 924
  store float 0x3FD99999A0000000, ptr %5, align 4, !tbaa !30
  %6 = getelementptr inbounds nuw i8, ptr %0, i64 928
  store i8 0, ptr %6, align 8, !tbaa !31
  %7 = getelementptr inbounds nuw i8, ptr %0, i64 932
  store i32 0, ptr %7, align 4, !tbaa !32
  %.not.i = icmp eq i32 %1, 0
  br i1 %.not.i, label %_ZN19OpenColorIO_v2_5dev20GradingTonePreRender8setStyleENS_12GradingStyleE.exit, label %8

8:                                                ; preds = %.preheader43.preheader
  store i32 %1, ptr %7, align 4, !tbaa !32
  switch i32 %1, label %_ZN19OpenColorIO_v2_5dev20GradingTonePreRender8setStyleENS_12GradingStyleE.exit [
    i32 2, label %.sink.split.i.i
    i32 1, label %9
  ]

9:                                                ; preds = %8
  br label %.sink.split.i.i

.sink.split.i.i:                                  ; preds = %8, %9
  %.sink14.i.i = phi float [ 7.500000e+00, %9 ], [ 1.000000e+00, %8 ]
  %.sink13.i.i = phi float [ 6.500000e+00, %9 ], [ 1.000000e+00, %8 ]
  %.sink12.i.i = phi float [ -5.500000e+00, %9 ], [ 0.000000e+00, %8 ]
  %.sink.i.i = phi float [ 0.000000e+00, %9 ], [ 0x3FD99999A0000000, %8 ]
  store float %.sink14.i.i, ptr %2, align 8, !tbaa !33
  store float %.sink13.i.i, ptr %3, align 4, !tbaa !33
  store float %.sink12.i.i, ptr %4, align 8, !tbaa !33
  store float %.sink.i.i, ptr %5, align 4, !tbaa !33
  br label %_ZN19OpenColorIO_v2_5dev20GradingTonePreRender8setStyleENS_12GradingStyleE.exit

_ZN19OpenColorIO_v2_5dev20GradingTonePreRender8setStyleENS_12GradingStyleE.exit: ; preds = %.preheader43.preheader, %8, %.sink.split.i.i
  ret void
}